(dp0
VImproved DAE syntax
p1
(S'/home/john/wikiscrape/wiki/Improved_DAE_syntax.txt'
p2
S'SAVED'
p3
tp4
sVSyntax improvement
p5
(S'/home/john/wikiscrape/wiki/Syntax_improvement.txt'
p6
S'SAVED'
p7
tp8
sVSCons options for building ASCEND
p9
(S'/home/john/wikiscrape/wiki/SCons_options_for_building_ASCEND.txt'
p10
S'SAVED'
p11
tp12
sVUseful resources
p13
(S'/home/john/wikiscrape/wiki/Useful_resources.txt'
p14
g11
tp15
sVBinary installers for Coin3d and SoQt on MinGW
p16
(S'/home/john/wikiscrape/wiki/Binary_installers_for_Coin3d_and_SoQt_on_MinGW.txt'
p17
S'SAVED'
p18
tp19
sVGraphical block debugging
p20
(S'/home/john/wikiscrape/wiki/Graphical_block_debugging.txt'
p21
g18
tp22
sVInstance hierarchy
p23
(S'/home/john/wikiscrape/wiki/Instance_hierarchy.txt'
p24
S'SAVED'
p25
tp26
sVOther modelling tools
p27
(S'/home/john/wikiscrape/wiki/Other_modelling_tools.txt'
p28
S'NEW'
p29
tp30
sVCategory:GSOC2009
p31
(S'/home/john/wikiscrape/wiki/Category:GSOC2009.txt'
p32
S'SAVED'
p33
tp34
sVLogic Solvers
p35
(S'/home/john/wikiscrape/wiki/Logic_Solvers.txt'
p36
g33
tp37
sVBuilding SUNDIALS on Windows
p38
(S'/home/john/wikiscrape/wiki/Building_SUNDIALS_on_Windows.txt'
p39
S'SAVED'
p40
tp41
sVNon-Proprietary Optimization - Implementation Details
p42
(S'/home/john/wikiscrape/wiki/Non-Proprietary_Optimization_-_Implementation_Details.txt'
p43
g29
tp44
sVUNIFAC model
p45
(S'/home/john/wikiscrape/wiki/UNIFAC_model.txt'
p46
g29
tp47
sVDeveloper's Manual
p48
(S'/home/john/wikiscrape/wiki/Developers_manual.txt'
p49
g29
tp50
sVWindows Miscellany
p51
(S'/home/john/wikiscrape/wiki/Windows_Miscellany.txt'
p52
g29
tp53
sVIPOPT
p54
(S'/home/john/wikiscrape/wiki/IPOPT.txt'
p55
g29
tp56
sVBuilding a Debian package from a source tarball
p57
(S'/home/john/wikiscrape/wiki/Building_a_Debian_package_from_a_source_tarball.txt'
p58
g29
tp59
sVCalculation of sun position
p60
(S'/home/john/wikiscrape/wiki/Calculation_of_sun_position.txt'
p61
g29
tp62
sVUser:Dipak
p63
(S'/home/john/wikiscrape/wiki/User:Dipak.txt'
p64
g29
tp65
sVPyGTK Screenshots
p66
(S'/home/john/wikiscrape/wiki/PyGTK_screenshots.txt'
p67
g29
tp68
sVUnits of measurement
p69
(S'/home/john/wikiscrape/wiki/Units_of_Measurement.txt'
p70
g29
tp71
sVDocumentation systems
p72
(S'/home/john/wikiscrape/wiki/Documentation_systems.txt'
p73
g29
tp74
sVIncidence matrix
p75
(S'/home/john/wikiscrape/wiki/Incidence_matrix.txt'
p76
g29
tp77
sVIMPORT
p78
(S'/home/john/wikiscrape/wiki/IMPORT.txt'
p79
g29
tp80
sVThin-walled tank/HW01
p81
(S'/home/john/wikiscrape/wiki/Thin-walled_tank___HW01.txt'
p82
g29
tp83
sVASCEND Model Library
p84
(S'/home/john/wikiscrape/wiki/ASCEND_Model_Library.txt'
p85
g29
tp86
sVUser:Arijit
p87
(S'/home/john/wikiscrape/wiki/User:Arijit.txt'
p88
g29
tp89
sVOptimisation of frame geometry
p90
(S'/home/john/wikiscrape/wiki/Optimisation_of_frame_geometry.txt'
p91
g29
tp92
sVHow to begin modelling with ASCEND
p93
(S'/home/john/wikiscrape/wiki/How_to_begin_modelling_with_ASCEND.txt'
p94
g29
tp95
sVDynamic modelling
p96
(S'/home/john/wikiscrape/wiki/Dynamic_modelling.txt'
p97
g29
tp98
sVDamped response
p99
(S'/home/john/wikiscrape/wiki/Damped_response.txt'
p100
g29
tp101
sVFPROPS
p102
(S'/home/john/wikiscrape/wiki/FPROPS.txt'
p103
g29
tp104
sVCategory:GSOC2010
p105
(S'/home/john/wikiscrape/wiki/Category:GSOC2010.txt'
p106
g29
tp107
sVWHERE
p108
(S'/home/john/wikiscrape/wiki/WHERE.txt'
p109
g29
tp110
sVAutomatic URL linking to MediaWiki and ViewVC from Mantis
p111
(S'/home/john/wikiscrape/wiki/Automatic_URL_linking_to_MediaWiki_and_ViewVC_from_Mantis.txt'
p112
g29
tp113
sVMore documentation
p114
(S'/home/john/wikiscrape/wiki/More_documentation.txt'
p115
g29
tp116
sVWILL BE
p117
(S'/home/john/wikiscrape/wiki/WILL_BE.txt'
p118
g29
tp119
sVModelling with Spreadsheets
p120
(S'/home/john/wikiscrape/wiki/Modelling_with_Spreadsheets.txt'
p121
g29
tp122
sVBinary installer for GSL-1.13 on MinGW
p123
(S'/home/john/wikiscrape/wiki/Binary_installer_for_GSL-1.13_on_MinGW.txt'
p124
g29
tp125
sVPyGTK GUI command-line parameters
p126
(S'/home/john/wikiscrape/wiki/PyGTK_GUI_command-line_parameters.txt'
p127
g29
tp128
sVASCEND Users and Friends
p129
(S'/home/john/wikiscrape/wiki/ASCEND_Users_and_Friends.txt'
p130
g29
tp131
sVDevelopment activities
p132
(S'/home/john/wikiscrape/wiki/Development_activities.txt'
p133
g29
tp134
sVInstalling Raid 1 on Existing Ubuntu Server
p135
(S'/home/john/wikiscrape/wiki/Installing_Raid_1_on_Existing_Ubuntu_Server.txt'
p136
g29
tp137
sVGlobal variables
p138
(S'/home/john/wikiscrape/wiki/Global_variables.txt'
p139
g29
tp140
sVParametric studies
p141
(S'/home/john/wikiscrape/wiki/Parametric-Studies.txt'
p142
g29
tp143
sVInstalling samba and activating rdesktop on Ubuntu 7.04
p144
(S'/home/john/wikiscrape/wiki/Installing_sambe_and_activating_rdesktop_on_Ubuntu_7.04.txt'
p145
g29
tp146
sVCategory:Examples
p147
(S'/home/john/wikiscrape/wiki/Category:Examples.txt'
p148
g29
tp149
sVALIASES
p150
(S'/home/john/wikiscrape/wiki/ALIASES.txt'
p151
g29
tp152
sVIS_REFINED_TO
p153
(S'/home/john/wikiscrape/wiki/IS_REFINED_TO.txt'
p154
g29
tp155
sVExtPy
p156
(S'/home/john/wikiscrape/wiki/ExtPy.txt'
p157
g29
tp158
sVHelp:Contents
p159
(S'/home/john/wikiscrape/wiki/Help:Contents.txt'
p160
g29
tp161
sVRunning the Python/PyGTK GUI on Windows
p162
(S'/home/john/wikiscrape/wiki/Running_to_Python___PyGTK_GUI_on_Windows.txt'
p163
g29
tp164
sVTclTk screenshots
p165
(S'/home/john/wikiscrape/wiki/TclTk_screenshots.txt'
p166
g29
tp167
sVEnergy system modelling with ASCEND
p168
(S'/home/john/wikiscrape/wiki/Energy_system_modelling_with_ASCEND.txt'
p169
g29
tp170
sVREQUIRE
p171
(S'/home/john/wikiscrape/wiki/REQUIRE.txt'
p172
g29
tp173
sVVLEWhy
p174
(S'/home/john/wikiscrape/wiki/VLEWhy.txt'
p175
g29
tp176
sVDesktop integration
p177
(S'/home/john/wikiscrape/wiki/Desktop_integration.txt'
p178
g29
tp179
sVIS_A
p180
(S'/home/john/wikiscrape/wiki/IS_A.txt'
p181
g29
tp182
sVData reader
p183
(S'/home/john/wikiscrape/wiki/Data_reader.txt'
p184
g29
tp185
sVTalk:Student projects
p186
(S'/home/john/wikiscrape/wiki/Talk:Student_projects.txt'
p187
g29
tp188
sVUser:Jpye
p189
(S'/home/john/wikiscrape/wiki/User:Jpye.txt'
p190
g29
tp191
sVSolver NOTES
p192
(S'/home/john/wikiscrape/wiki/Solver_NOTES.txt'
p193
g29
tp194
sVHow do I fix my model
p195
(S'/home/john/wikiscrape/wiki/How_do_I_fix_my_model.txt'
p196
g29
tp197
sVPACKAGE metafiles
p198
(S'/home/john/wikiscrape/wiki/PACKAGE_metafiles.txt'
p199
g29
tp200
sVTalk:ASCEND Wiki
p201
(S'/home/john/wikiscrape/wiki/Talk:ASCEND_Wiki.txt'
p202
g29
tp203
sVQuick Start
p204
(S'/home/john/wikiscrape/wiki/Quick_Start.txt'
p205
g29
tp206
sVASCEND:Privacy policy
p207
(S'/home/john/wikiscrape/wiki/ASCEND:Privacy_policy.txt'
p208
g29
tp209
sVExternal Integrators
p210
(S'/home/john/wikiscrape/wiki/External_Integrators.txt'
p211
g29
tp212
sVThin-walled tank/Building complex models
p213
(S'/home/john/wikiscrape/wiki/Thin-walled_tank___Building_complex_models.txt'
p214
g29
tp215
sVCoverage testing
p216
(S'/home/john/wikiscrape/wiki/Coverage_testing.txt'
p217
g29
tp218
sVWILL_BE_THE_SAME
p219
(S'/home/john/wikiscrape/wiki/WILL_BE_THE_SAME.txt'
p220
g29
tp221
sVCategory:Proposed
p222
(S'/home/john/wikiscrape/wiki/Category:Proposed.txt'
p223
g29
tp224
sVDifferentiation Exercise
p225
(S'/home/john/wikiscrape/wiki/Differentiation_Exercise.txt'
p226
g29
tp227
sVVapor-liquid equilibrium
p228
(S'/home/john/wikiscrape/wiki/Vapor-liquid_equilibrium.txt'
p229
g29
tp230
sVCategory:Development
p231
(S'/home/john/wikiscrape/wiki/Category:Development.txt'
p232
g29
tp233
sVGSOC2010
p234
(S'/home/john/wikiscrape/wiki/GSOC2010.txt'
p235
g29
tp236
sVFOR
p237
(S'/home/john/wikiscrape/wiki/FOR.txt'
p238
g29
tp239
sVCategory:Miscellany
p240
(S'/home/john/wikiscrape/wiki/Category:Miscellany.txt'
p241
g29
tp242
sVUser talk:Grivan
p243
(S'/home/john/wikiscrape/wiki/User_talk:Grivan.txt'
p244
g29
tp245
sVConditional modelling
p246
(S'/home/john/wikiscrape/wiki/Conditional_modelling.txt'
p247
g29
tp248
sVUser:Mnm87
p249
(S'/home/john/wikiscrape/wiki/User:Mnm87.txt'
p250
g29
tp251
sVEXTERNAL
p252
(S'/home/john/wikiscrape/wiki/EXTERNAL.txt'
p253
g29
tp254
sVCoding style
p255
(S'/home/john/wikiscrape/wiki/Coding_style.txt'
p256
g29
tp257
sVEnvironment variables for ASCEND
p258
(S'/home/john/wikiscrape/wiki/Environment_variables_for_ASCEND.txt'
p259
g29
tp260
sVDiagnose tool
p261
(S'/home/john/wikiscrape/wiki/Diagnose_tool.txt'
p262
g29
tp263
sVPorting to Mac
p264
(S'/home/john/wikiscrape/wiki/Porting_to_Mac.txt'
p265
g29
tp266
sVMETHODS
p267
(S'/home/john/wikiscrape/wiki/METHODS.txt'
p268
g29
tp269
sVRankine cycle
p270
(S'/home/john/wikiscrape/wiki/Rankine_cycle.txt'
p271
g29
tp272
sVRenewable energy systems modelling
p273
(S'/home/john/wikiscrape/wiki/Renewable_energy_systems_modelling.txt'
p274
g29
tp275
sVWHILE
p276
(S'/home/john/wikiscrape/wiki/WHILE.txt'
p277
g29
tp278
sVSyntax highlighting
p279
(S'/home/john/wikiscrape/wiki/Syntax_highlighting.txt'
p280
g29
tp281
sVCategory:Solvers
p282
(S'/home/john/wikiscrape/wiki/Category:Solvers.txt'
p283
g29
tp284
sVExternal libraries
p285
(S'/home/john/wikiscrape/wiki/External_libraries.txt'
p286
g29
tp287
sVThin-walled tank/Introduction
p288
(S'/home/john/wikiscrape/wiki/Thin-walled_tank___Introduction.txt'
p289
g29
tp290
sVChecking models
p291
(S'/home/john/wikiscrape/wiki/Checking_models.txt'
p292
g29
tp293
sVBuilding an RPM Package for ASCEND
p294
(S'/home/john/wikiscrape/wiki/Building_an_RPM_Package_for_ASCEND.txt'
p295
g29
tp296
sVSurvey of sparse matrix software
p297
(S'/home/john/wikiscrape/wiki/Survey_of_sparse_matrix_software.txt'
p298
g29
tp299
sVSupport
p300
(S'/home/john/wikiscrape/wiki/Support.txt'
p301
g29
tp302
sVModel self-testing
p303
(S'/home/john/wikiscrape/wiki/Model_self-testing.txt'
p304
g29
tp305
sVPrerequisites for Windows
p306
(S'/home/john/wikiscrape/wiki/Prerequisites_for_Windows.txt'
p307
g29
tp308
sVLINK syntax
p309
(S'/home/john/wikiscrape/wiki/LINK_syntax.txt'
p310
g29
tp311
sVComponentizingAscend
p312
(S'/home/john/wikiscrape/wiki/ComponentizingAscend.txt'
p313
g29
tp314
sVMODEL
p315
(S'/home/john/wikiscrape/wiki/MODEL.txt'
p316
g29
tp317
sVIDA
p318
(S'/home/john/wikiscrape/wiki/IDA.txt'
p319
g29
tp320
sVObservers
p321
(S'/home/john/wikiscrape/wiki/Observers.txt'
p322
g29
tp323
sVPythonWrapper
p324
(S'/home/john/wikiscrape/wiki/PythonWrapper.txt'
p325
g29
tp326
sVReferenced examples
p327
(S'/home/john/wikiscrape/wiki/Referenced_examples.txt'
p328
g29
tp329
sVMounting a remote disk using sshfs in Ubuntu 7.04
p330
(S'/home/john/wikiscrape/wiki/Mounting_a_remote_disk_using_sshfs_in_Ubuntu_7.04.txt'
p331
g29
tp332
sVWriting ASCEND external relations in C
p333
(S'/home/john/wikiscrape/wiki/Writing_ASCEND_external_relations_in_C.txt'
p334
g29
tp335
sVThin-walled tank/Parameterized models
p336
(S'/home/john/wikiscrape/wiki/Thin-walled_tank___Parameterized_models.txt'
p337
g29
tp338
sVScaling
p339
(S'/home/john/wikiscrape/wiki/Scaling.txt'
p340
g29
tp341
sVGrey-box Models
p342
(S'/home/john/wikiscrape/wiki/Grey-box_Models.txt'
p343
g29
tp344
sVOpenMP Exercise
p345
(S'/home/john/wikiscrape/wiki/OpenMP_Exercise.txt'
p346
g29
tp347
sVArthur Westerberg
p348
(S'/home/john/wikiscrape/wiki/Arthur_Westerberg.txt'
p349
g29
tp350
sVVariable
p351
(S'/home/john/wikiscrape/wiki/Variable.txt'
p352
g29
tp353
sVCMSlv
p354
(S'/home/john/wikiscrape/wiki/CMSlv.txt'
p355
g29
tp356
sVControlling the solvers from within METHODS
p357
(S'/home/john/wikiscrape/wiki/Controlling_the_solvers_from_within_METHODS.txt'
p358
g29
tp359
sVNOTES
p360
(S'/home/john/wikiscrape/wiki/NOTES.txt'
p361
g29
tp362
sVImport handlers
p363
(S'/home/john/wikiscrape/wiki/Import_handlers.txt'
p364
g29
tp365
sVGoal seeking solver
p366
(S'/home/john/wikiscrape/wiki/Goal_seeking_solver.txt'
p367
g29
tp368
sVIncidence Graph
p369
(S'/home/john/wikiscrape/wiki/Incidence_Graph.txt'
p370
g29
tp371
sVARE_ALIKE
p372
(S'/home/john/wikiscrape/wiki/ARE_ALIKE.txt'
p373
g29
tp374
sVExternal Solvers
p375
(S'/home/john/wikiscrape/wiki/External_Solvers.txt'
p376
g29
tp377
sVEnzymeKinetics
p378
(S'/home/john/wikiscrape/wiki/EnzymeKinetics.txt'
p379
g29
tp380
sVSurvey of optimisation software
p381
(S'/home/john/wikiscrape/wiki/Survey_of_optimisation_software.txt'
p382
g29
tp383
sVReal-time ASCEND
p384
(S'/home/john/wikiscrape/wiki/Real-time_ASCEND.txt'
p385
g29
tp386
sVTalk:Data reader
p387
(S'/home/john/wikiscrape/wiki/Talk:Data_reader.txt'
p388
g29
tp389
sVPython console support
p390
(S'/home/john/wikiscrape/wiki/Python_console_support.txt'
p391
g29
tp392
sVStudent projects
p393
(S'/home/john/wikiscrape/wiki/Student_projects.txt'
p394
g29
tp395
sVObtaining CONOPT for ASCEND
p396
(S'/home/john/wikiscrape/wiki/Obtaining_CONOPT_for_ASCEND.txt'
p397
g29
tp398
sVThin-walled tank/Adding methods to a model
p399
(S'/home/john/wikiscrape/wiki/Thin-walled_tank___Adding_methods_to_a_model.txt'
p400
g29
tp401
sVREFINES
p402
(S'/home/john/wikiscrape/wiki/REFINES.txt'
p403
g29
tp404
sVLibrary
p405
(S'/home/john/wikiscrape/wiki/Library.txt'
p406
g29
tp407
sVPrerequisites for Linux
p408
(S'/home/john/wikiscrape/wiki/Prerequisites_for_Linux.txt'
p409
g29
tp410
sVSupporting RPMs
p411
(S'/home/john/wikiscrape/wiki/Supporting_RPMs.txt'
p412
g29
tp413
sVANTLR exercise
p414
(S'/home/john/wikiscrape/wiki/ANTLR_exercise.txt'
p415
g29
tp416
sVWorked examples
p417
(S'/home/john/wikiscrape/wiki/Worked_examples.txt'
p418
g29
tp419
sVArrays and sets
p420
(S'/home/john/wikiscrape/wiki/Arrays_and_sets.txt'
p421
g29
tp422
sVCategory:Articles to be merged
p423
(S'/home/john/wikiscrape/wiki/Category:Articles_to_be_merged.txt'
p424
g29
tp425
sVCanvas-based modeller for ASCEND
p426
(S'/home/john/wikiscrape/wiki/Canvas-based_modeller_for_ASCEND.txt'
p427
g29
tp428
sVNon-proprietary Optimization
p429
(S'/home/john/wikiscrape/wiki/Non-proprietary_Optimization.txt'
p430
g29
tp431
sVFreesteam
p432
(S'/home/john/wikiscrape/wiki/Freesteam.txt'
p433
g29
tp434
sVSensitivity study
p435
(S'/home/john/wikiscrape/wiki/Sensitivity_study.txt'
p436
g29
tp437
sVASCEND overview
p438
(S'/home/john/wikiscrape/wiki/ASCEND_overview.txt'
p439
g29
tp440
sVASCEND source code repository
p441
(S'/home/john/wikiscrape/wiki/ASCEND_source_code_repository.txt'
p442
g29
tp443
sVBoundary detection
p444
(S'/home/john/wikiscrape/wiki/Boundary_detection.txt'
p445
g29
tp446
sVThermodynamics with ASCEND
p447
(S'/home/john/wikiscrape/wiki/Thermodynamics_with_ASCEND.txt'
p448
g29
tp449
sVCategory:Documentation
p450
(S'/home/john/wikiscrape/wiki/Category:Documentation.txt'
p451
g29
tp452
sVDATA
p453
(S'/home/john/wikiscrape/wiki/DATA.txt'
p454
g29
tp455
sVSaving and restoring model state
p456
(S'/home/john/wikiscrape/wiki/Saving_and_restoring_model_state.txt'
p457
g29
tp458
sVCategory:Outdated
p459
(S'/home/john/wikiscrape/wiki/Category:Outdated.txt'
p460
g29
tp461
sVScripting ASCEND using Python
p462
(S'/home/john/wikiscrape/wiki/Scripting_ASCEND_using_Python.txt'
p463
g29
tp464
sVUser:DanteStroe
p465
(S'/home/john/wikiscrape/wiki/User:DanteStroe.txt'
p466
g29
tp467
sVCategory:Syntax
p468
(S'/home/john/wikiscrape/wiki/Category:Syntax.txt'
p469
g29
tp470
sVSELECT
p471
(S'/home/john/wikiscrape/wiki/SELECT.txt'
p472
g29
tp473
sVBinary installer for GSL-1.13 on Mac OS X
p474
(S'/home/john/wikiscrape/wiki/Binary_installer_for_GSL-1.13_on_Mac_OS_X.txt'
p475
g29
tp476
sVHistory of ASCEND
p477
(S'/home/john/wikiscrape/wiki/History_of_ASCEND.txt'
p478
g29
tp479
sVThin-walled tank/Arrays
p480
(S'/home/john/wikiscrape/wiki/Thin-walled_tank___Arrays.txt'
p481
g29
tp482
sVASCEND Wiki
p483
(S'/home/john/wikiscrape/wiki/ASCEND_Wiki.txt'
p484
g29
tp485
sVReal-time ASCEND/Solver
p486
(S'/home/john/wikiscrape/wiki/Real-time_ASCEND___Solver.txt'
p487
g29
tp488
sVVleexample
p489
(S'/home/john/wikiscrape/wiki/Vleexample.txt'
p490
g29
tp491
sVRegression Testing
p492
(S'/home/john/wikiscrape/wiki/Regression_Testing.txt'
p493
g29
tp494
sVSteam properties
p495
(S'/home/john/wikiscrape/wiki/Steam_properties.txt'
p496
g29
tp497
sVObject-oriented modelling
p498
(S'/home/john/wikiscrape/wiki/Object-oriented_modelling.txt'
p499
g29
tp500
sVCategory:Tutorials
p501
(S'/home/john/wikiscrape/wiki/Category:Tutorials.txt'
p502
g29
tp503
sVNext-generation ASCEND syntax
p504
(S'/home/john/wikiscrape/wiki/Next-generation_ASCEND_syntax.txt'
p505
g29
tp506
sVFREE
p507
(S'/home/john/wikiscrape/wiki/FREE.txt'
p508
g29
tp509
sVRemote Virtual Windows
p510
(S'/home/john/wikiscrape/wiki/Remote_virtual_windows.txt'
p511
g29
tp512
sVATOM
p513
(S'/home/john/wikiscrape/wiki/ATOM.txt'
p514
g29
tp515
sVInitial-value modelling
p516
(S'/home/john/wikiscrape/wiki/Initial-value_modelling.txt'
p517
g29
tp518
sVSpreadsheet interface
p519
(S'/home/john/wikiscrape/wiki/Spreadsheet_interface.txt'
p520
g29
tp521
sVStructured models
p522
(S'/home/john/wikiscrape/wiki/Structured_models.txt'
p523
g29
tp524
sVIntegrator API
p525
(S'/home/john/wikiscrape/wiki/Integrator_API.txt'
p526
g29
tp527
sVPorting to Mac/ige-mac-bundler
p528
(S'/home/john/wikiscrape/wiki/Porting_to_Mac___ige-mac-bundler.txt'
p529
g29
tp530
sVFaxing via Google Voice
p531
(S'/home/john/wikiscrape/wiki/Faxing_via_Google_Voice.txt'
p532
g29
tp533
sVBinary installer for Boost on MinGW
p534
(S'/home/john/wikiscrape/wiki/Binary_installer_for_Boost_on_MinGW.txt'
p535
g29
tp536
sVTcl-config
p537
(S'/home/john/wikiscrape/wiki/Tcl-config.txt'
p538
g29
tp539
sVBuilding ASCEND
p540
(S'/home/john/wikiscrape/wiki/Building_ASCEND.txt'
p541
g18
tp542
s.