(dp0
VImproved DAE syntax
p1
(S'/home/john/wikiscrape/wiki/Improved_DAE_syntax.txt'
p2
S'SAVED'
p3
tp4
sVSyntax improvement
p5
(S'/home/john/wikiscrape/wiki/Syntax_improvement.txt'
p6
S'SAVED'
p7
tp8
sVSCons options for building ASCEND
p9
(S'/home/john/wikiscrape/wiki/SCons_options_for_building_ASCEND.txt'
p10
S'SAVED'
p11
tp12
sVUseful resources
p13
(S'/home/john/wikiscrape/wiki/Useful_resources.txt'
p14
g11
tp15
sVBuilding ASCEND
p16
(S'/home/john/wikiscrape/wiki/Building_ASCEND.txt'
p17
g11
tp18
sVBinary installers for Coin3d and SoQt on MinGW
p19
(S'/home/john/wikiscrape/wiki/Binary_installers_for_Coin3d_and_SoQt_on_MinGW.txt'
p20
S'SAVED'
p21
tp22
sVGraphical block debugging
p23
(S'/home/john/wikiscrape/wiki/Graphical_block_debugging.txt'
p24
g21
tp25
sVInstance hierarchy
p26
(S'/home/john/wikiscrape/wiki/Instance_hierarchy.txt'
p27
S'SAVED'
p28
tp29
sVOther modelling tools
p30
(S'/home/john/wikiscrape/wiki/Other_modelling_tools.txt'
p31
g28
tp32
sVCategory:GSOC2009
p33
(S'/home/john/wikiscrape/wiki/Category:GSOC2009.txt'
p34
S'SAVED'
p35
tp36
sVCategory:Articles to be merged
p37
(S'/home/john/wikiscrape/wiki/Category:Articles_to_be_merged.txt'
p38
S'SAVED'
p39
tp40
sVLogic Solvers
p41
(S'/home/john/wikiscrape/wiki/Logic_Solvers.txt'
p42
S'SAVED'
p43
tp44
sVBuilding SUNDIALS on Windows
p45
(S'/home/john/wikiscrape/wiki/Building_SUNDIALS_on_Windows.txt'
p46
S'SAVED'
p47
tp48
sVNon-Proprietary Optimization - Implementation Details
p49
(S'/home/john/wikiscrape/wiki/Non-Proprietary_Optimization_-_Implementation_Details.txt'
p50
S'SAVED'
p51
tp52
sVUNIFAC model
p53
(S'/home/john/wikiscrape/wiki/UNIFAC_model.txt'
p54
S'SAVED'
p55
tp56
sVDeveloper's Manual
p57
(S'/home/john/wikiscrape/wiki/Developers_manual.txt'
p58
S'SAVED'
p59
tp60
sVWindows Miscellany
p61
(S'/home/john/wikiscrape/wiki/Windows_Miscellany.txt'
p62
S'SAVED'
p63
tp64
sVIPOPT
p65
(S'/home/john/wikiscrape/wiki/IPOPT.txt'
p66
S'SAVED'
p67
tp68
sVBuilding a Debian package from a source tarball
p69
(S'/home/john/wikiscrape/wiki/Building_a_Debian_package_from_a_source_tarball.txt'
p70
S'SAVED'
p71
tp72
sVCalculation of sun position
p73
(S'/home/john/wikiscrape/wiki/Calculation_of_sun_position.txt'
p74
S'SAVED'
p75
tp76
sVComponentizingAscend
p77
(S'/home/john/wikiscrape/wiki/ComponentizingAscend.txt'
p78
S'SAVED'
p79
tp80
sVAutomatic URL linking to MediaWiki and ViewVC from Mantis
p81
(S'/home/john/wikiscrape/wiki/Automatic_URL_linking_to_MediaWiki_and_ViewVC_from_Mantis.txt'
p82
S'SAVED'
p83
tp84
sVUnits of measurement
p85
(S'/home/john/wikiscrape/wiki/Units_of_Measurement.txt'
p86
S'SAVED'
p87
tp88
sVDocumentation systems
p89
(S'/home/john/wikiscrape/wiki/Documentation_systems.txt'
p90
S'SAVED'
p91
tp92
sVGoal seeking solver
p93
(S'/home/john/wikiscrape/wiki/Goal_seeking_solver.txt'
p94
g51
tp95
sVIMPORT
p96
(S'/home/john/wikiscrape/wiki/IMPORT.txt'
p97
g51
tp98
sVBinary installer for GSL-1.13 on Mac OS X
p99
(S'/home/john/wikiscrape/wiki/Binary_installer_for_GSL-1.13_on_Mac_OS_X.txt'
p100
g51
tp101
sVASCEND Model Library
p102
(S'/home/john/wikiscrape/wiki/ASCEND_Model_Library.txt'
p103
g51
tp104
sVUser:Arijit
p105
(S'/home/john/wikiscrape/wiki/User:Arijit.txt'
p106
g51
tp107
sVOptimisation of frame geometry
p108
(S'/home/john/wikiscrape/wiki/Optimisation_of_frame_geometry.txt'
p109
g51
tp110
sVHow to begin modelling with ASCEND
p111
(S'/home/john/wikiscrape/wiki/How_to_begin_modelling_with_ASCEND.txt'
p112
g55
tp113
sVDynamic modelling
p114
(S'/home/john/wikiscrape/wiki/Dynamic_modelling.txt'
p115
g55
tp116
sVDamped response
p117
(S'/home/john/wikiscrape/wiki/Damped_response.txt'
p118
g55
tp119
sVBinary installer for GSL-1.13 on MinGW
p120
(S'/home/john/wikiscrape/wiki/Binary_installer_for_GSL-1.13_on_MinGW.txt'
p121
g55
tp122
sVFPROPS
p123
(S'/home/john/wikiscrape/wiki/FPROPS.txt'
p124
g55
tp125
sVCategory:GSOC2010
p126
(S'/home/john/wikiscrape/wiki/Category:GSOC2010.txt'
p127
g55
tp128
sVWHERE
p129
(S'/home/john/wikiscrape/wiki/WHERE.txt'
p130
g55
tp131
sVImport handlers
p132
(S'/home/john/wikiscrape/wiki/Import_handlers.txt'
p133
g55
tp134
sVMore documentation
p135
(S'/home/john/wikiscrape/wiki/More_documentation.txt'
p136
g55
tp137
sVWILL BE
p138
(S'/home/john/wikiscrape/wiki/WILL_BE.txt'
p139
g55
tp140
sVModelling with Spreadsheets
p141
(S'/home/john/wikiscrape/wiki/Modelling_with_Spreadsheets.txt'
p142
g55
tp143
sVFreesteam
p144
(S'/home/john/wikiscrape/wiki/Freesteam.txt'
p145
g55
tp146
sVPyGTK GUI command-line parameters
p147
(S'/home/john/wikiscrape/wiki/PyGTK_GUI_command-line_parameters.txt'
p148
g55
tp149
sVASCEND Users and Friends
p150
(S'/home/john/wikiscrape/wiki/ASCEND_Users_and_Friends.txt'
p151
g55
tp152
sVDevelopment activities
p153
(S'/home/john/wikiscrape/wiki/Development_activities.txt'
p154
g55
tp155
sVLINK syntax
p156
(S'/home/john/wikiscrape/wiki/LINK_syntax.txt'
p157
g55
tp158
sVInstalling Raid 1 on Existing Ubuntu Server
p159
(S'/home/john/wikiscrape/wiki/Installing_Raid_1_on_Existing_Ubuntu_Server.txt'
p160
g55
tp161
sVGlobal variables
p162
(S'/home/john/wikiscrape/wiki/Global_variables.txt'
p163
g55
tp164
sVParametric studies
p165
(S'/home/john/wikiscrape/wiki/Parametric_studies.txt'
p166
g55
tp167
sVInstalling samba and activating rdesktop on Ubuntu 7.04
p168
(S'/home/john/wikiscrape/wiki/Installing_sambe_and_activating_rdesktop_on_Ubuntu_7.04.txt'
p169
g55
tp170
sVCategory:Examples
p171
(S'/home/john/wikiscrape/wiki/Category:Examples.txt'
p172
g55
tp173
sVVapor-liquid equilibrium
p174
(S'/home/john/wikiscrape/wiki/Vapor-liquid_equilibrium.txt'
p175
g55
tp176
sVModel self-testing
p177
(S'/home/john/wikiscrape/wiki/Model_self-testing.txt'
p178
g55
tp179
sVRunning the Python/PyGTK GUI on Windows
p180
(S'/home/john/wikiscrape/wiki/Running_to_Python___PyGTK_GUI_on_Windows.txt'
p181
g55
tp182
sVTclTk screenshots
p183
(S'/home/john/wikiscrape/wiki/TclTk_screenshots.txt'
p184
g55
tp185
sVEnergy system modelling with ASCEND
p186
(S'/home/john/wikiscrape/wiki/Energy_system_modelling_with_ASCEND.txt'
p187
g55
tp188
sVREQUIRE
p189
(S'/home/john/wikiscrape/wiki/REQUIRE.txt'
p190
g55
tp191
sVVLEWhy
p192
(S'/home/john/wikiscrape/wiki/VLEWhy.txt'
p193
g55
tp194
sVREFINES
p195
(S'/home/john/wikiscrape/wiki/REFINES.txt'
p196
g55
tp197
sVIS_A
p198
(S'/home/john/wikiscrape/wiki/IS_A.txt'
p199
g55
tp200
sVData reader
p201
(S'/home/john/wikiscrape/wiki/Data_reader.txt'
p202
g55
tp203
sVTalk:Student projects
p204
(S'/home/john/wikiscrape/wiki/Talk:Student_projects.txt'
p205
g55
tp206
sVUser:Jpye
p207
(S'/home/john/wikiscrape/wiki/User:Jpye.txt'
p208
g55
tp209
sVSolver NOTES
p210
(S'/home/john/wikiscrape/wiki/Solver_NOTES.txt'
p211
g55
tp212
sVHow do I fix my model
p213
(S'/home/john/wikiscrape/wiki/How_do_I_fix_my_model.txt'
p214
g55
tp215
sVPACKAGE metafiles
p216
(S'/home/john/wikiscrape/wiki/PACKAGE_metafiles.txt'
p217
g55
tp218
sVTalk:ASCEND Wiki
p219
(S'/home/john/wikiscrape/wiki/Talk:ASCEND_Wiki.txt'
p220
g55
tp221
sVPython console support
p222
(S'/home/john/wikiscrape/wiki/Python_console_support.txt'
p223
g55
tp224
sVQuick Start
p225
(S'/home/john/wikiscrape/wiki/Quick_Start.txt'
p226
g55
tp227
sVASCEND:Privacy policy
p228
(S'/home/john/wikiscrape/wiki/ASCEND:Privacy_policy.txt'
p229
g55
tp230
sVExternal Integrators
p231
(S'/home/john/wikiscrape/wiki/External_Integrators.txt'
p232
g55
tp233
sVThin-walled tank/Building complex models
p234
(S'/home/john/wikiscrape/wiki/Thin-walled_tank___Building_complex_models.txt'
p235
g55
tp236
sVCoverage testing
p237
(S'/home/john/wikiscrape/wiki/Coverage_testing.txt'
p238
g55
tp239
sVWILL_BE_THE_SAME
p240
(S'/home/john/wikiscrape/wiki/WILL_BE_THE_SAME.txt'
p241
g55
tp242
sVCategory:Proposed
p243
(S'/home/john/wikiscrape/wiki/Category:Proposed.txt'
p244
g55
tp245
sVDifferentiation Exercise
p246
(S'/home/john/wikiscrape/wiki/Differentiation_Exercise.txt'
p247
g55
tp248
sVALIASES
p249
(S'/home/john/wikiscrape/wiki/ALIASES.txt'
p250
g55
tp251
sVCategory:Development
p252
(S'/home/john/wikiscrape/wiki/Category:Development.txt'
p253
g55
tp254
sVGSOC2010
p255
(S'/home/john/wikiscrape/wiki/GSOC2010.txt'
p256
g55
tp257
sVFOR
p258
(S'/home/john/wikiscrape/wiki/FOR.txt'
p259
g55
tp260
sVCategory:Miscellany
p261
(S'/home/john/wikiscrape/wiki/Category:Miscellany.txt'
p262
g55
tp263
sVUser talk:Grivan
p264
(S'/home/john/wikiscrape/wiki/User_talk:Grivan.txt'
p265
g55
tp266
sVConditional modelling
p267
(S'/home/john/wikiscrape/wiki/Conditional_modelling.txt'
p268
g55
tp269
sVUser:Mnm87
p270
(S'/home/john/wikiscrape/wiki/User:Mnm87.txt'
p271
g55
tp272
sVEXTERNAL
p273
(S'/home/john/wikiscrape/wiki/EXTERNAL.txt'
p274
g55
tp275
sVCoding style
p276
(S'/home/john/wikiscrape/wiki/Coding_style.txt'
p277
g55
tp278
sVEnvironment variables for ASCEND
p279
(S'/home/john/wikiscrape/wiki/Environment_variables_for_ASCEND.txt'
p280
g55
tp281
sVDiagnose tool
p282
(S'/home/john/wikiscrape/wiki/Diagnose_tool.txt'
p283
g55
tp284
sVPorting to Mac
p285
(S'/home/john/wikiscrape/wiki/Porting_to_Mac.txt'
p286
g55
tp287
sVReferenced examples
p288
(S'/home/john/wikiscrape/wiki/Referenced_examples.txt'
p289
g55
tp290
sVRankine cycle
p291
(S'/home/john/wikiscrape/wiki/Rankine_cycle.txt'
p292
g55
tp293
sVRenewable energy systems modelling
p294
(S'/home/john/wikiscrape/wiki/Renewable_energy_systems_modelling.txt'
p295
g55
tp296
sVSyntax highlighting
p297
(S'/home/john/wikiscrape/wiki/Syntax_highlighting.txt'
p298
g55
tp299
sVCategory:Solvers
p300
(S'/home/john/wikiscrape/wiki/Category:Solvers.txt'
p301
g55
tp302
sVThin-walled tank/Introduction
p303
(S'/home/john/wikiscrape/wiki/Thin-walled_tank___Introduction.txt'
p304
g55
tp305
sVChecking models
p306
(S'/home/john/wikiscrape/wiki/Checking_models.txt'
p307
g55
tp308
sVBuilding an RPM Package for ASCEND
p309
(S'/home/john/wikiscrape/wiki/Building_an_RPM_Package_for_ASCEND.txt'
p310
g55
tp311
sVSurvey of sparse matrix software
p312
(S'/home/john/wikiscrape/wiki/Survey_of_sparse_matrix_software.txt'
p313
g55
tp314
sVSupport
p315
(S'/home/john/wikiscrape/wiki/Support.txt'
p316
g55
tp317
sVHelp:Contents
p318
(S'/home/john/wikiscrape/wiki/Help:Contents.txt'
p319
g55
tp320
sVGrey-box Models
p321
(S'/home/john/wikiscrape/wiki/Grey-box_Models.txt'
p322
g55
tp323
sVWHILE
p324
(S'/home/john/wikiscrape/wiki/WHILE.txt'
p325
g55
tp326
sVExtPy
p327
(S'/home/john/wikiscrape/wiki/ExtPy.txt'
p328
g55
tp329
sVMODEL
p330
(S'/home/john/wikiscrape/wiki/MODEL.txt'
p331
g55
tp332
sVIDA
p333
(S'/home/john/wikiscrape/wiki/IDA.txt'
p334
g55
tp335
sVObservers
p336
(S'/home/john/wikiscrape/wiki/Observers.txt'
p337
g55
tp338
sVPythonWrapper
p339
(S'/home/john/wikiscrape/wiki/PythonWrapper.txt'
p340
g55
tp341
sVMETHODS
p342
(S'/home/john/wikiscrape/wiki/METHODS.txt'
p343
g55
tp344
sVMounting a remote disk using sshfs in Ubuntu 7.04
p345
(S'/home/john/wikiscrape/wiki/Mounting_a_remote_disk_using_sshfs_in_Ubuntu_7.04.txt'
p346
g55
tp347
sVWriting ASCEND external relations in C
p348
(S'/home/john/wikiscrape/wiki/Writing_ASCEND_external_relations_in_C.txt'
p349
g55
tp350
sVThin-walled tank/Parameterized models
p351
(S'/home/john/wikiscrape/wiki/Thin-walled_tank___Parameterized_models.txt'
p352
g55
tp353
sVScaling
p354
(S'/home/john/wikiscrape/wiki/Scaling.txt'
p355
g55
tp356
sVOpenMP Exercise
p357
(S'/home/john/wikiscrape/wiki/OpenMP_Exercise.txt'
p358
g55
tp359
sVArthur Westerberg
p360
(S'/home/john/wikiscrape/wiki/Arthur_Westerberg.txt'
p361
g55
tp362
sVVariable
p363
(S'/home/john/wikiscrape/wiki/Variable.txt'
p364
g55
tp365
sVCMSlv
p366
(S'/home/john/wikiscrape/wiki/CMSlv.txt'
p367
g55
tp368
sVNOTES
p369
(S'/home/john/wikiscrape/wiki/NOTES.txt'
p370
g55
tp371
sVIncidence matrix
p372
(S'/home/john/wikiscrape/wiki/Incidence_matrix.txt'
p373
g55
tp374
sVIncidence Graph
p375
(S'/home/john/wikiscrape/wiki/Incidence_Graph.txt'
p376
g55
tp377
sVARE_ALIKE
p378
(S'/home/john/wikiscrape/wiki/ARE_ALIKE.txt'
p379
g55
tp380
sVUser:Dipak
p381
(S'/home/john/wikiscrape/wiki/User:Dipak.txt'
p382
g55
tp383
sVExternal Solvers
p384
(S'/home/john/wikiscrape/wiki/External_Solvers.txt'
p385
g55
tp386
sVFREE
p387
(S'/home/john/wikiscrape/wiki/FREE.txt'
p388
g55
tp389
sVSurvey of optimisation software
p390
(S'/home/john/wikiscrape/wiki/Survey_of_optimisation_software.txt'
p391
g55
tp392
sVReal-time ASCEND
p393
(S'/home/john/wikiscrape/wiki/Real-time_ASCEND.txt'
p394
g55
tp395
sVTalk:Data reader
p396
(S'/home/john/wikiscrape/wiki/Talk:Data_reader.txt'
p397
g55
tp398
sVExternal libraries
p399
(S'/home/john/wikiscrape/wiki/External_libraries.txt'
p400
g55
tp401
sVStudent projects
p402
(S'/home/john/wikiscrape/wiki/Student_projects.txt'
p403
g55
tp404
sVPrerequisites for Windows
p405
(S'/home/john/wikiscrape/wiki/Prerequisites_for_Windows.txt'
p406
g55
tp407
sVObtaining CONOPT for ASCEND
p408
(S'/home/john/wikiscrape/wiki/Obtaining_CONOPT_for_ASCEND.txt'
p409
g55
tp410
sVThin-walled tank/Adding methods to a model
p411
(S'/home/john/wikiscrape/wiki/Thin-walled_tank___Adding_methods_to_a_model.txt'
p412
g55
tp413
sVDesktop integration
p414
(S'/home/john/wikiscrape/wiki/Desktop_integration.txt'
p415
g55
tp416
sVLibrary
p417
(S'/home/john/wikiscrape/wiki/Library.txt'
p418
g55
tp419
sVPrerequisites for Linux
p420
(S'/home/john/wikiscrape/wiki/Prerequisites_for_Linux.txt'
p421
g55
tp422
sVSupporting RPMs
p423
(S'/home/john/wikiscrape/wiki/Supporting_RPMs.txt'
p424
g55
tp425
sVANTLR exercise
p426
(S'/home/john/wikiscrape/wiki/ANTLR_exercise.txt'
p427
g55
tp428
sVWorked examples
p429
(S'/home/john/wikiscrape/wiki/Worked_examples.txt'
p430
g55
tp431
sVArrays and sets
p432
(S'/home/john/wikiscrape/wiki/Arrays_and_sets.txt'
p433
g55
tp434
sVThin-walled tank/HW01
p435
(S'/home/john/wikiscrape/wiki/Thin-walled_tank___HW01.txt'
p436
g35
tp437
sVCanvas-based modeller for ASCEND
p438
(S'/home/john/wikiscrape/wiki/Canvas-based_modeller_for_ASCEND.txt'
p439
g55
tp440
sVNon-proprietary Optimization
p441
(S'/home/john/wikiscrape/wiki/Non-proprietary_Optimization.txt'
p442
g55
tp443
sVSensitivity study
p444
(S'/home/john/wikiscrape/wiki/Sensitivity_study.txt'
p445
g55
tp446
sVDATA
p447
(S'/home/john/wikiscrape/wiki/DATA.txt'
p448
g55
tp449
sVASCEND source code repository
p450
(S'/home/john/wikiscrape/wiki/ASCEND_source_code_repository.txt'
p451
g55
tp452
sVBoundary detection
p453
(S'/home/john/wikiscrape/wiki/Boundary_detection.txt'
p454
g55
tp455
sVThermodynamics with ASCEND
p456
(S'/home/john/wikiscrape/wiki/Thermodynamics_with_ASCEND.txt'
p457
g55
tp458
sVCategory:Documentation
p459
(S'/home/john/wikiscrape/wiki/Category:Documentation.txt'
p460
g55
tp461
sVASCEND overview
p462
(S'/home/john/wikiscrape/wiki/ASCEND_overview.txt'
p463
g55
tp464
sVSaving and restoring model state
p465
(S'/home/john/wikiscrape/wiki/Saving_and_restoring_model_state.txt'
p466
g55
tp467
sVCategory:Outdated
p468
(S'/home/john/wikiscrape/wiki/Category:Outdated.txt'
p469
g55
tp470
sVScripting ASCEND using Python
p471
(S'/home/john/wikiscrape/wiki/Scripting_ASCEND_using_Python.txt'
p472
g55
tp473
sVUser:DanteStroe
p474
(S'/home/john/wikiscrape/wiki/User:DanteStroe.txt'
p475
g55
tp476
sVCategory:Syntax
p477
(S'/home/john/wikiscrape/wiki/Category:Syntax.txt'
p478
g55
tp479
sVSELECT
p480
(S'/home/john/wikiscrape/wiki/SELECT.txt'
p481
g55
tp482
sVHistory of ASCEND
p483
(S'/home/john/wikiscrape/wiki/History_of_ASCEND.txt'
p484
g55
tp485
sVThin-walled tank/Arrays
p486
(S'/home/john/wikiscrape/wiki/Thin-walled_tank___Arrays.txt'
p487
g55
tp488
sVASCEND Wiki
p489
(S'/home/john/wikiscrape/wiki/ASCEND_Wiki.txt'
p490
g55
tp491
sVReal-time ASCEND/Solver
p492
(S'/home/john/wikiscrape/wiki/Real-time_ASCEND___Solver.txt'
p493
g55
tp494
sVVleexample
p495
(S'/home/john/wikiscrape/wiki/Vleexample.txt'
p496
g55
tp497
sVRegression Testing
p498
(S'/home/john/wikiscrape/wiki/Regression_Testing.txt'
p499
g55
tp500
sVSteam properties
p501
(S'/home/john/wikiscrape/wiki/Steam_properties.txt'
p502
g55
tp503
sVObject-oriented modelling
p504
(S'/home/john/wikiscrape/wiki/Object-oriented_modelling.txt'
p505
g55
tp506
sVCategory:Tutorials
p507
(S'/home/john/wikiscrape/wiki/Category:Tutorials.txt'
p508
g55
tp509
sVNext-generation ASCEND syntax
p510
(S'/home/john/wikiscrape/wiki/Next-generation_ASCEND_syntax.txt'
p511
g55
tp512
sVEnzymeKinetics
p513
(S'/home/john/wikiscrape/wiki/EnzymeKinetics.txt'
p514
g55
tp515
sVRemote Virtual Windows
p516
(S'/home/john/wikiscrape/wiki/Remote_virtual_windows.txt'
p517
g55
tp518
sVATOM
p519
(S'/home/john/wikiscrape/wiki/ATOM.txt'
p520
g55
tp521
sVInitial-value modelling
p522
(S'/home/john/wikiscrape/wiki/Initial-value_modelling.txt'
p523
g55
tp524
sVSpreadsheet interface
p525
(S'/home/john/wikiscrape/wiki/Spreadsheet_interface.txt'
p526
g55
tp527
sVStructured models
p528
(S'/home/john/wikiscrape/wiki/Structured_models.txt'
p529
g55
tp530
sVIntegrator API
p531
(S'/home/john/wikiscrape/wiki/Integrator_API.txt'
p532
g55
tp533
sVPyGTK Screenshots
p534
(S'/home/john/wikiscrape/wiki/PyGTK_screenshots.txt'
p535
g55
tp536
sVPorting to Mac/ige-mac-bundler
p537
(S'/home/john/wikiscrape/wiki/Porting_to_Mac___ige-mac-bundler.txt'
p538
g55
tp539
sVFaxing via Google Voice
p540
(S'/home/john/wikiscrape/wiki/Faxing_via_Google_Voice.txt'
p541
g55
tp542
sVBinary installer for Boost on MinGW
p543
(S'/home/john/wikiscrape/wiki/Binary_installer_for_Boost_on_MinGW.txt'
p544
g55
tp545
sVTcl-config
p546
(S'/home/john/wikiscrape/wiki/Tcl-config.txt'
p547
g51
tp548
sVIS_REFINED_TO
p549
(S'/home/john/wikiscrape/wiki/IS_REFINED_TO.txt'
p550
g55
tp551
s.